target datalayout = "e-m:e-p270:32:32-p271:32:32-p272:64:64-i64:64-i128:128-f80:128-n8:16:32:64-S128"
target triple = "x86_64-unknown-linux-gnu"

%struct.RAMList = type { %struct.QemuMutex, ptr, %struct.anon, [3 x ptr], i32, %struct.anon.0 }
%struct.QemuMutex = type { %union.pthread_mutex_t, i8 }
%union.pthread_mutex_t = type { %struct.__pthread_mutex_s }
%struct.__pthread_mutex_s = type { i32, i32, i32, i32, i32, i16, i16, %struct.__pthread_internal_list }
%struct.__pthread_internal_list = type { ptr, ptr }
%struct.anon = type { ptr }
%struct.anon.0 = type { ptr }
%struct.rcu_head = type { ptr, ptr }
%struct.RAMBlock = type { %struct.rcu_head, ptr, ptr, ptr, i64, i64, i64, ptr, i32, [256 x i8], %struct.anon.14, %struct.anon.15, i32, i64, i64, ptr, ptr, ptr, i8, i64 }
%struct.anon.14 = type { ptr, ptr }
%struct.anon.15 = type { ptr }

@ram_list = dso_local global %struct.RAMList zeroinitializer, align 8
@.str.1 = private unnamed_addr constant [25 x i8] c"../qemu/system/physmem.c\00", align 1
@stderr = external global ptr, align 8
@__func__.qemu_get_ram_block = private unnamed_addr constant [19 x i8] c"qemu_get_ram_block\00", align 1
@.str.81 = private unnamed_addr constant [20 x i8] c"Bad ram offset %lx\0A\00", align 1
@.str.94 = private unnamed_addr constant [102 x i8] c"/home/dtcxzyw/WorkSpace/Projects/compilers/llvm-opt-benchmark/bench/qemu/qemu/include/exec/ram_addr.h\00", align 1
@.str.95 = private unnamed_addr constant [34 x i8] c"offset_in_ramblock(block, offset)\00", align 1
@__PRETTY_FUNCTION__.ramblock_ptr = private unnamed_addr constant [43 x i8] c"void *ramblock_ptr(RAMBlock *, ram_addr_t)\00", align 1

; Function Attrs: nounwind sspstrong uwtable
define internal zeroext i1 @offset_in_ramblock(ptr noundef %b, i64 noundef %offset) #0 {
entry:
  %b.addr = alloca ptr, align 8
  %offset.addr = alloca i64, align 8
  store ptr %b, ptr %b.addr, align 8
  store i64 %offset, ptr %offset.addr, align 8
  %0 = load ptr, ptr %b.addr, align 8
  %tobool = icmp ne ptr %0, null
  br i1 %tobool, label %land.lhs.true, label %land.end

land.lhs.true:                                    ; preds = %entry
  %1 = load ptr, ptr %b.addr, align 8
  %host = getelementptr inbounds %struct.RAMBlock, ptr %1, i32 0, i32 2
  %2 = load ptr, ptr %host, align 8
  %tobool1 = icmp ne ptr %2, null
  br i1 %tobool1, label %land.rhs, label %land.end

land.rhs:                                         ; preds = %land.lhs.true
  %3 = load i64, ptr %offset.addr, align 8
  %4 = load ptr, ptr %b.addr, align 8
  %used_length = getelementptr inbounds %struct.RAMBlock, ptr %4, i32 0, i32 5
  %5 = load i64, ptr %used_length, align 8
  %cmp = icmp ult i64 %3, %5
  br label %land.end

land.end:                                         ; preds = %land.rhs, %land.lhs.true, %entry
  %6 = phi i1 [ false, %land.lhs.true ], [ false, %entry ], [ %cmp, %land.rhs ]
  %cond = select i1 %6, i32 1, i32 0
  %tobool2 = icmp ne i32 %cond, 0
  ret i1 %tobool2
}

; Function Attrs: nounwind sspstrong uwtable
define internal ptr @ramblock_ptr(ptr noundef %block, i64 noundef %offset) #0 {
entry:
  %block.addr = alloca ptr, align 8
  %offset.addr = alloca i64, align 8
  store ptr %block, ptr %block.addr, align 8
  store i64 %offset, ptr %offset.addr, align 8
  %0 = load ptr, ptr %block.addr, align 8
  %1 = load i64, ptr %offset.addr, align 8
  %call = call zeroext i1 @offset_in_ramblock(ptr noundef %0, i64 noundef %1)
  br i1 %call, label %if.then, label %if.else

if.then:                                          ; preds = %entry
  br label %if.end

if.else:                                          ; preds = %entry
  call void @__assert_fail(ptr noundef @.str.95, ptr noundef @.str.94, i32 noundef 85, ptr noundef @__PRETTY_FUNCTION__.ramblock_ptr) #13
  unreachable

if.end:                                           ; preds = %if.then
  %2 = load ptr, ptr %block.addr, align 8
  %host = getelementptr inbounds %struct.RAMBlock, ptr %2, i32 0, i32 2
  %3 = load ptr, ptr %host, align 8
  %4 = load i64, ptr %offset.addr, align 8
  %add.ptr = getelementptr i8, ptr %3, i64 %4
  ret ptr %add.ptr
}

; Function Attrs: nounwind sspstrong uwtable
define internal ptr @qemu_get_ram_block(i64 noundef %addr) #0 {
entry:
  %retval = alloca ptr, align 8
  %addr.addr = alloca i64, align 8
  %block = alloca ptr, align 8
  %_val26 = alloca ptr, align 8
  %tmp = alloca ptr, align 8
  %_val27 = alloca ptr, align 8
  %tmp6 = alloca ptr, align 8
  %_val28 = alloca ptr, align 8
  %tmp19 = alloca ptr, align 8
  store i64 %addr, ptr %addr.addr, align 8
  br label %while.cond

while.cond:                                       ; preds = %do.end, %entry
  br i1 false, label %while.body, label %while.end

while.body:                                       ; preds = %while.cond
  br label %do.body

do.body:                                          ; preds = %while.body
  call void @g_assertion_message_expr(ptr noundef null, ptr noundef @.str.1, i32 noundef 788, ptr noundef @__func__.qemu_get_ram_block, ptr noundef null) #14
  unreachable

do.end:                                           ; No predecessors!
  br label %while.cond

while.end:                                        ; preds = %while.cond
  %0 = getelementptr inbounds %struct.RAMList, ptr @ram_list, i32 0, i32 1
  %1 = load atomic i64, ptr %0 monotonic, align 8
  store i64 %1, ptr %_val26, align 8
  call void asm sideeffect "", "~{memory},~{dirflag},~{fpsr},~{flags}"() #15, !srcloc !13
  %2 = load ptr, ptr %_val26, align 8
  store ptr %2, ptr %tmp, align 8
  %3 = load ptr, ptr %tmp, align 8
  store ptr %3, ptr %block, align 8
  %4 = load ptr, ptr %block, align 8
  %tobool = icmp ne ptr %4, null
  br i1 %tobool, label %land.lhs.true, label %if.end

land.lhs.true:                                    ; preds = %while.end
  %5 = load i64, ptr %addr.addr, align 8
  %6 = load ptr, ptr %block, align 8
  %offset = getelementptr inbounds %struct.RAMBlock, ptr %6, i32 0, i32 4
  %7 = load i64, ptr %offset, align 8
  %sub = sub i64 %5, %7
  %8 = load ptr, ptr %block, align 8
  %max_length = getelementptr inbounds %struct.RAMBlock, ptr %8, i32 0, i32 6
  %9 = load i64, ptr %max_length, align 8
  %cmp = icmp ult i64 %sub, %9
  br i1 %cmp, label %if.then, label %if.end

if.then:                                          ; preds = %land.lhs.true
  %10 = load ptr, ptr %block, align 8
  store ptr %10, ptr %retval, align 8
  br label %return

if.end:                                           ; preds = %land.lhs.true, %while.end
  br label %while.cond1

while.cond1:                                      ; preds = %do.end4, %if.end
  br i1 false, label %while.body2, label %while.end5

while.body2:                                      ; preds = %while.cond1
  br label %do.body3

do.body3:                                         ; preds = %while.body2
  call void @g_assertion_message_expr(ptr noundef null, ptr noundef @.str.1, i32 noundef 792, ptr noundef @__func__.qemu_get_ram_block, ptr noundef null) #14
  unreachable

do.end4:                                          ; No predecessors!
  br label %while.cond1

while.end5:                                       ; preds = %while.cond1
  %11 = getelementptr inbounds %struct.RAMList, ptr @ram_list, i32 0, i32 2
  %12 = load atomic i64, ptr %11 monotonic, align 8
  store i64 %12, ptr %_val27, align 8
  call void asm sideeffect "", "~{memory},~{dirflag},~{fpsr},~{flags}"() #15, !srcloc !14
  %13 = load ptr, ptr %_val27, align 8
  store ptr %13, ptr %tmp6, align 8
  %14 = load ptr, ptr %tmp6, align 8
  store ptr %14, ptr %block, align 8
  br label %for.cond

for.cond:                                         ; preds = %while.end18, %while.end5
  %15 = load ptr, ptr %block, align 8
  %tobool7 = icmp ne ptr %15, null
  br i1 %tobool7, label %for.body, label %for.end

for.body:                                         ; preds = %for.cond
  %16 = load i64, ptr %addr.addr, align 8
  %17 = load ptr, ptr %block, align 8
  %offset8 = getelementptr inbounds %struct.RAMBlock, ptr %17, i32 0, i32 4
  %18 = load i64, ptr %offset8, align 8
  %sub9 = sub i64 %16, %18
  %19 = load ptr, ptr %block, align 8
  %max_length10 = getelementptr inbounds %struct.RAMBlock, ptr %19, i32 0, i32 6
  %20 = load i64, ptr %max_length10, align 8
  %cmp11 = icmp ult i64 %sub9, %20
  br i1 %cmp11, label %if.then12, label %if.end13

if.then12:                                        ; preds = %for.body
  br label %found

if.end13:                                         ; preds = %for.body
  br label %for.inc

for.inc:                                          ; preds = %if.end13
  br label %while.cond14

while.cond14:                                     ; preds = %do.end17, %for.inc
  br i1 false, label %while.body15, label %while.end18

while.body15:                                     ; preds = %while.cond14
  br label %do.body16

do.body16:                                        ; preds = %while.body15
  call void @g_assertion_message_expr(ptr noundef null, ptr noundef @.str.1, i32 noundef 792, ptr noundef @__func__.qemu_get_ram_block, ptr noundef null) #14
  unreachable

do.end17:                                         ; No predecessors!
  br label %while.cond14

while.end18:                                      ; preds = %while.cond14
  %21 = load ptr, ptr %block, align 8
  %next = getelementptr inbounds %struct.RAMBlock, ptr %21, i32 0, i32 10
  %le_next = getelementptr inbounds %struct.anon.14, ptr %next, i32 0, i32 0
  %22 = load atomic i64, ptr %le_next monotonic, align 8
  store i64 %22, ptr %_val28, align 8
  call void asm sideeffect "", "~{memory},~{dirflag},~{fpsr},~{flags}"() #15, !srcloc !15
  %23 = load ptr, ptr %_val28, align 8
  store ptr %23, ptr %tmp19, align 8
  %24 = load ptr, ptr %tmp19, align 8
  store ptr %24, ptr %block, align 8
  br label %for.cond, !llvm.loop !16

for.end:                                          ; preds = %for.cond
  %25 = load ptr, ptr @stderr, align 8
  %26 = load i64, ptr %addr.addr, align 8
  %call = call i32 (ptr, ptr, ...) @fprintf(ptr noundef %25, ptr noundef @.str.81, i64 noundef %26)
  call void @abort() #13
  unreachable

found:                                            ; preds = %if.then12
  %27 = load ptr, ptr %block, align 8
  %28 = getelementptr inbounds %struct.RAMList, ptr @ram_list, i32 0, i32 1
  store ptr %27, ptr %28, align 8
  %29 = load ptr, ptr %block, align 8
  store ptr %29, ptr %retval, align 8
  br label %return

return:                                           ; preds = %found, %if.then
  %30 = load ptr, ptr %retval, align 8
  ret ptr %30
}

; Function Attrs: nounwind sspstrong uwtable
define dso_local ptr @qemu_map_ram_ptr(ptr noundef %ram_block, i64 noundef %addr) #0 {
entry:
  %ram_block.addr = alloca ptr, align 8
  %addr.addr = alloca i64, align 8
  %block = alloca ptr, align 8
  store ptr %ram_block, ptr %ram_block.addr, align 8
  store i64 %addr, ptr %addr.addr, align 8
  %0 = load ptr, ptr %ram_block.addr, align 8
  store ptr %0, ptr %block, align 8
  %1 = load ptr, ptr %block, align 8
  %cmp = icmp eq ptr %1, null
  br i1 %cmp, label %if.then, label %if.end

if.then:                                          ; preds = %entry
  %2 = load i64, ptr %addr.addr, align 8
  %call = call ptr @qemu_get_ram_block(i64 noundef %2)
  store ptr %call, ptr %block, align 8
  %3 = load ptr, ptr %block, align 8
  %offset = getelementptr inbounds %struct.RAMBlock, ptr %3, i32 0, i32 4
  %4 = load i64, ptr %offset, align 8
  %5 = load i64, ptr %addr.addr, align 8
  %sub = sub i64 %5, %4
  store i64 %sub, ptr %addr.addr, align 8
  br label %if.end

if.end:                                           ; preds = %if.then, %entry
  %6 = load ptr, ptr %block, align 8
  %7 = load i64, ptr %addr.addr, align 8
  %call1 = call ptr @ramblock_ptr(ptr noundef %6, i64 noundef %7)
  ret ptr %call1
}