; Function Attrs: nounwind sspstrong uwtable
define dso_local ptr @qemu_map_ram_ptr(ptr noundef readonly %ram_block, i64 noundef %addr) local_unnamed_addr #0 {
entry:
  %cmp = icmp eq ptr %ram_block, null
  br i1 %cmp, label %if.then, label %land.lhs.true.i.i

if.then:                                          ; preds = %entry
  %0 = load atomic i64, ptr getelementptr inbounds nuw (i8, ptr @ram_list, i64 48) monotonic, align 8
  tail call void asm sideeffect "", "~{memory},~{dirflag},~{fpsr},~{flags}"() #28, !srcloc !17
  %tobool.not.i = icmp eq i64 %0, 0
  br i1 %tobool.not.i, label %while.end5.i, label %land.lhs.true.i

land.lhs.true.i:                                  ; preds = %if.then
  %1 = inttoptr i64 %0 to ptr
  %offset.i = getelementptr inbounds nuw i8, ptr %1, i64 40
  %2 = load i64, ptr %offset.i, align 8
  %sub.i = sub i64 %addr, %2
  %max_length.i = getelementptr inbounds nuw i8, ptr %1, i64 56
  %3 = load i64, ptr %max_length.i, align 8
  %cmp.i = icmp ult i64 %sub.i, %3
  br i1 %cmp.i, label %land.lhs.true.i.i, label %while.end5.i

while.end5.i:                                     ; preds = %land.lhs.true.i, %if.then
  %4 = load atomic i64, ptr getelementptr inbounds nuw (i8, ptr @ram_list, i64 56) monotonic, align 8
  tail call void asm sideeffect "", "~{memory},~{dirflag},~{fpsr},~{flags}"() #28, !srcloc !18
  %tobool7.not14.i = icmp eq i64 %4, 0
  br i1 %tobool7.not14.i, label %for.end.i, label %for.body.i

for.body.i:                                       ; preds = %while.end5.i, %while.end18.i
  %block.015.in.i = phi i64 [ %7, %while.end18.i ], [ %4, %while.end5.i ]
  %block.015.i = inttoptr i64 %block.015.in.i to ptr
  %offset8.i = getelementptr inbounds nuw i8, ptr %block.015.i, i64 40
  %5 = load i64, ptr %offset8.i, align 8
  %sub9.i = sub i64 %addr, %5
  %max_length10.i = getelementptr inbounds nuw i8, ptr %block.015.i, i64 56
  %6 = load i64, ptr %max_length10.i, align 8
  %cmp11.i = icmp ult i64 %sub9.i, %6
  br i1 %cmp11.i, label %found.i, label %while.end18.i

while.end18.i:                                    ; preds = %for.body.i
  %next.i = getelementptr inbounds nuw i8, ptr %block.015.i, i64 336
  %7 = load atomic i64, ptr %next.i monotonic, align 8
  tail call void asm sideeffect "", "~{memory},~{dirflag},~{fpsr},~{flags}"() #28, !srcloc !19
  %tobool7.not.i = icmp eq i64 %7, 0
  br i1 %tobool7.not.i, label %for.end.i, label %for.body.i, !llvm.loop !20

for.end.i:                                        ; preds = %while.end18.i, %while.end5.i
  %8 = load ptr, ptr @stderr, align 8
  %call.i = tail call i32 (ptr, ptr, ...) @fprintf(ptr noundef %8, ptr noundef nonnull @.str.81, i64 noundef %addr) #30
  tail call void @abort() #27
  unreachable

found.i:                                          ; preds = %for.body.i
  %offset8.i.le = getelementptr inbounds nuw i8, ptr %block.015.i, i64 40
  store ptr %block.015.i, ptr getelementptr inbounds nuw (i8, ptr @ram_list, i64 48), align 8
  %.pre = load i64, ptr %offset8.i.le, align 8
  %.pre7 = sub i64 %addr, %.pre
  br label %land.lhs.true.i.i

land.lhs.true.i.i:                                ; preds = %found.i, %land.lhs.true.i, %entry
  %addr.addr.0 = phi i64 [ %addr, %entry ], [ %sub.i, %land.lhs.true.i ], [ %.pre7, %found.i ]
  %block.0 = phi ptr [ %ram_block, %entry ], [ %1, %land.lhs.true.i ], [ %block.015.i, %found.i ]
  %host.i.i = getelementptr inbounds nuw i8, ptr %block.0, i64 24
  %9 = load ptr, ptr %host.i.i, align 8
  %tobool1.not.i.i = icmp eq ptr %9, null
  br i1 %tobool1.not.i.i, label %if.else.i, label %offset_in_ramblock.exit.i

offset_in_ramblock.exit.i:                        ; preds = %land.lhs.true.i.i
  %used_length.i.i = getelementptr inbounds nuw i8, ptr %block.0, i64 48
  %10 = load i64, ptr %used_length.i.i, align 8
  %cmp.i.i = icmp ult i64 %addr.addr.0, %10
  br i1 %cmp.i.i, label %ramblock_ptr.exit, label %if.else.i

if.else.i:                                        ; preds = %offset_in_ramblock.exit.i, %land.lhs.true.i.i
  tail call void @__assert_fail(ptr noundef nonnull @.str.95, ptr noundef nonnull @.str.94, i32 noundef 85, ptr noundef nonnull @__PRETTY_FUNCTION__.ramblock_ptr) #27
  unreachable

ramblock_ptr.exit:                                ; preds = %offset_in_ramblock.exit.i
  %add.ptr.i = getelementptr i8, ptr %9, i64 %addr.addr.0
  ret ptr %add.ptr.i
}